target datalayout = "e-m:e-p270:32:32-p271:32:32-p272:64:64-i64:64-i128:128-f80:128-n8:16:32:64-S128"
target triple = "x86_64-pc-linux-gnu"

@H5PL_num_paths_g = internal global i32 0, align 4
@H5PL_path_capacity_g = internal global i32 16, align 4
@H5PL_paths_g = internal global ptr null, align 8
@.str = private unnamed_addr constant [102 x i8] c"generated/home/dtcxzyw/WorkSpace/Projects/compilers/llvm-opt-benchmark/bench/hdf5/hdf5/src/H5PLpath.c\00", align 1
@__func__.H5PL__create_path_table = private unnamed_addr constant [24 x i8] c"H5PL__create_path_table\00", align 1
@H5E_PLUGIN_g = external global i64, align 8
@H5E_CANTALLOC_g = external global i64, align 8
@.str.1 = private unnamed_addr constant [37 x i8] c"can't allocate memory for path table\00", align 1
@.str.2 = private unnamed_addr constant [17 x i8] c"HDF5_PLUGIN_PATH\00", align 1
@.str.3 = private unnamed_addr constant [27 x i8] c"/usr/local/hdf5/lib/plugin\00", align 1
@.str.4 = private unnamed_addr constant [36 x i8] c"can't allocate memory for path copy\00", align 1
@.str.5 = private unnamed_addr constant [2 x i8] c":\00", align 1
@.str.6 = private unnamed_addr constant [22 x i8] c"can't insert path: %s\00", align 1
@__func__.H5PL__append_path = private unnamed_addr constant [18 x i8] c"H5PL__append_path\00", align 1
@H5E_CANTINSERT_g = external global i64, align 8
@.str.7 = private unnamed_addr constant [29 x i8] c"unable to append search path\00", align 1

; Function Attrs: nounwind uwtable
define i32 @H5PL__append_path(ptr noundef %0) #0 {
  %2 = alloca ptr, align 8
  %3 = alloca i32, align 4
  %4 = alloca i8, align 1
  store ptr %0, ptr %2, align 8
  store i32 0, ptr %3, align 4
  store i8 0, ptr %4, align 1
  %5 = load ptr, ptr %2, align 8
  %6 = load i32, ptr @H5PL_num_paths_g, align 4
  %7 = call i32 @H5PL__insert_at(ptr noundef %5, i32 noundef %6)
  %8 = icmp slt i32 %7, 0
  br i1 %8, label %9, label %24

9:                                                ; preds = %1
  br label %10

10:                                               ; preds = %9
  br label %11

11:                                               ; preds = %10
  br label %12

12:                                               ; preds = %11
  %13 = load i64, ptr @H5E_PLUGIN_g, align 8
  %14 = load i64, ptr @H5E_CANTINSERT_g, align 8
  %15 = call i32 (ptr, ptr, i32, i64, i64, ptr, ...) @H5E_printf_stack(ptr noundef @.str, ptr noundef @__func__.H5PL__append_path, i32 noundef 394, i64 noundef %13, i64 noundef %14, ptr noundef @.str.7)
  br label %16

16:                                               ; preds = %12
  store i8 1, ptr %4, align 1
  %17 = load i8, ptr %4, align 1
  %18 = trunc i8 %17 to i1
  %19 = zext i1 %18 to i8
  store i8 %19, ptr %4, align 1
  br label %20

20:                                               ; preds = %16
  br label %21

21:                                               ; preds = %20
  store i32 -1, ptr %3, align 4
  br label %25

22:                                               ; No predecessors!
  br label %23

23:                                               ; preds = %22
  br label %24

24:                                               ; preds = %23, %1
  br label %25

25:                                               ; preds = %24, %21
  %26 = load i32, ptr %3, align 4
  ret i32 %26
}

; Function Attrs: nounwind uwtable
define i32 @H5PL__create_path_table() #0 {
  %1 = alloca ptr, align 8
  %2 = alloca ptr, align 8
  %3 = alloca ptr, align 8
  %4 = alloca ptr, align 8
  %5 = alloca i32, align 4
  %6 = alloca i8, align 1
  store ptr null, ptr %1, align 8
  store ptr null, ptr %2, align 8
  store ptr null, ptr %3, align 8
  store ptr null, ptr %4, align 8
  store i32 0, ptr %5, align 4
  store i8 0, ptr %6, align 1
  store i32 0, ptr @H5PL_num_paths_g, align 4
  store i32 16, ptr @H5PL_path_capacity_g, align 4
  %7 = load i32, ptr @H5PL_path_capacity_g, align 4
  %8 = zext i32 %7 to i64
  %9 = mul i64 %8, 8
  %10 = call noalias ptr @calloc(i64 noundef 1, i64 noundef %9) #7
  store ptr %10, ptr @H5PL_paths_g, align 8
  %11 = icmp eq ptr null, %10
  br i1 %11, label %12, label %27

12:                                               ; preds = %0
  br label %13

13:                                               ; preds = %12
  br label %14

14:                                               ; preds = %13
  br label %15

15:                                               ; preds = %14
  %16 = load i64, ptr @H5E_PLUGIN_g, align 8
  %17 = load i64, ptr @H5E_CANTALLOC_g, align 8
  %18 = call i32 (ptr, ptr, i32, i64, i64, ptr, ...) @H5E_printf_stack(ptr noundef @.str, ptr noundef @__func__.H5PL__create_path_table, i32 noundef 246, i64 noundef %16, i64 noundef %17, ptr noundef @.str.1)
  br label %19

19:                                               ; preds = %15
  store i8 1, ptr %6, align 1
  %20 = load i8, ptr %6, align 1
  %21 = trunc i8 %20 to i1
  %22 = zext i1 %21 to i8
  store i8 %22, ptr %6, align 1
  br label %23

23:                                               ; preds = %19
  br label %24

24:                                               ; preds = %23
  store i32 -1, ptr %5, align 4
  br label %83

25:                                               ; No predecessors!
  br label %26

26:                                               ; preds = %25
  br label %27

27:                                               ; preds = %26, %0
  %28 = call ptr @getenv(ptr noundef @.str.2) #8
  store ptr %28, ptr %1, align 8
  %29 = load ptr, ptr %1, align 8
  %30 = icmp eq ptr null, %29
  br i1 %30, label %31, label %33

31:                                               ; preds = %27
  %32 = call noalias ptr @H5MM_strdup(ptr noundef @.str.3)
  store ptr %32, ptr %2, align 8
  br label %36

33:                                               ; preds = %27
  %34 = load ptr, ptr %1, align 8
  %35 = call noalias ptr @H5MM_strdup(ptr noundef %34)
  store ptr %35, ptr %2, align 8
  br label %36

36:                                               ; preds = %33, %31
  %37 = load ptr, ptr %2, align 8
  %38 = icmp eq ptr null, %37
  br i1 %38, label %39, label %54

39:                                               ; preds = %36
  br label %40

40:                                               ; preds = %39
  br label %41

41:                                               ; preds = %40
  br label %42

42:                                               ; preds = %41
  %43 = load i64, ptr @H5E_PLUGIN_g, align 8
  %44 = load i64, ptr @H5E_CANTALLOC_g, align 8
  %45 = call i32 (ptr, ptr, i32, i64, i64, ptr, ...) @H5E_printf_stack(ptr noundef @.str, ptr noundef @__func__.H5PL__create_path_table, i32 noundef 258, i64 noundef %43, i64 noundef %44, ptr noundef @.str.4)
  br label %46

46:                                               ; preds = %42
  store i8 1, ptr %6, align 1
  %47 = load i8, ptr %6, align 1
  %48 = trunc i8 %47 to i1
  %49 = zext i1 %48 to i8
  store i8 %49, ptr %6, align 1
  br label %50

50:                                               ; preds = %46
  br label %51

51:                                               ; preds = %50
  store i32 -1, ptr %5, align 4
  br label %83

52:                                               ; No predecessors!
  br label %53

53:                                               ; preds = %52
  br label %54

54:                                               ; preds = %53, %36
  %55 = load ptr, ptr %2, align 8
  %56 = call ptr @strtok_r(ptr noundef %55, ptr noundef @.str.5, ptr noundef %4) #8
  store ptr %56, ptr %3, align 8
  br label %57

57:                                               ; preds = %80, %54
  %58 = load ptr, ptr %3, align 8
  %59 = icmp ne ptr %58, null
  br i1 %59, label %60, label %82

60:                                               ; preds = %57
  %61 = load ptr, ptr %3, align 8
  %62 = call i32 @H5PL__append_path(ptr noundef %61)
  %63 = icmp slt i32 %62, 0
  br i1 %63, label %64, label %80

64:                                               ; preds = %60
  br label %65

65:                                               ; preds = %64
  br label %66

66:                                               ; preds = %65
  br label %67

67:                                               ; preds = %66
  %68 = load i64, ptr @H5E_PLUGIN_g, align 8
  %69 = load i64, ptr @H5E_CANTALLOC_g, align 8
  %70 = load ptr, ptr %3, align 8
  %71 = call i32 (ptr, ptr, i32, i64, i64, ptr, ...) @H5E_printf_stack(ptr noundef @.str, ptr noundef @__func__.H5PL__create_path_table, i32 noundef 266, i64 noundef %68, i64 noundef %69, ptr noundef @.str.6, ptr noundef %70)
  br label %72

72:                                               ; preds = %67
  store i8 1, ptr %6, align 1
  %73 = load i8, ptr %6, align 1
  %74 = trunc i8 %73 to i1
  %75 = zext i1 %74 to i8
  store i8 %75, ptr %6, align 1
  br label %76

76:                                               ; preds = %72
  br label %77

77:                                               ; preds = %76
  store i32 -1, ptr %5, align 4
  br label %83

78:                                               ; No predecessors!
  br label %79

79:                                               ; preds = %78
  br label %80

80:                                               ; preds = %79, %60
  %81 = call ptr @strtok_r(ptr noundef null, ptr noundef @.str.5, ptr noundef %4) #8
  store ptr %81, ptr %3, align 8
  br label %57

82:                                               ; preds = %57
  br label %83

83:                                               ; preds = %82, %77, %51, %24
  %84 = load ptr, ptr %2, align 8
  %85 = icmp ne ptr %84, null
  br i1 %85, label %86, label %89

86:                                               ; preds = %83
  %87 = load ptr, ptr %2, align 8
  %88 = call ptr @H5MM_xfree(ptr noundef %87)
  store ptr %88, ptr %2, align 8
  br label %89

89:                                               ; preds = %86, %83
  %90 = load i32, ptr %5, align 4
  %91 = icmp eq i32 -1, %90
  br i1 %91, label %92, label %99

92:                                               ; preds = %89
  %93 = load ptr, ptr @H5PL_paths_g, align 8
  %94 = icmp ne ptr %93, null
  br i1 %94, label %95, label %98

95:                                               ; preds = %92
  %96 = load ptr, ptr @H5PL_paths_g, align 8
  %97 = call ptr @H5MM_xfree(ptr noundef %96)
  store ptr %97, ptr @H5PL_paths_g, align 8
  br label %98

98:                                               ; preds = %95, %92
  store i32 0, ptr @H5PL_path_capacity_g, align 4
  br label %99

99:                                               ; preds = %98, %89
  %100 = load i32, ptr %5, align 4
  ret i32 %100
}