; Function Attrs: nounwind uwtable
define range(i32 -1, 1) i32 @H5PL__create_path_table() local_unnamed_addr #0 {
  %1 = alloca ptr, align 8
  store ptr null, ptr %1, align 8
  store i32 0, ptr @H5PL_num_paths_g, align 4
  store i32 16, ptr @H5PL_path_capacity_g, align 4
  %2 = tail call noalias dereferenceable_or_null(128) ptr @calloc(i64 noundef 1, i64 noundef 128) #12
  store ptr %2, ptr @H5PL_paths_g, align 8
  %3 = icmp eq ptr %2, null
  br i1 %3, label %4, label %8

4:                                                ; preds = %0
  %5 = load i64, ptr @H5E_PLUGIN_g, align 8
  %6 = load i64, ptr @H5E_CANTALLOC_g, align 8
  %7 = tail call i32 (ptr, ptr, i32, i64, i64, ptr, ...) @H5E_printf_stack(ptr noundef nonnull @.str, ptr noundef nonnull @__func__.H5PL__create_path_table, i32 noundef 246, i64 noundef %5, i64 noundef %6, ptr noundef nonnull @.str.1) #13
  br label %.thread24

8:                                                ; preds = %0
  %9 = tail call ptr @getenv(ptr noundef nonnull @.str.2) #13
  %10 = icmp eq ptr %9, null
  %.str.3. = select i1 %10, ptr @.str.3, ptr %9
  %11 = tail call noalias ptr @H5MM_strdup(ptr noundef nonnull %.str.3.) #13
  %12 = icmp eq ptr %11, null
  br i1 %12, label %13, label %17

13:                                               ; preds = %8
  %14 = load i64, ptr @H5E_PLUGIN_g, align 8
  %15 = load i64, ptr @H5E_CANTALLOC_g, align 8
  %16 = tail call i32 (ptr, ptr, i32, i64, i64, ptr, ...) @H5E_printf_stack(ptr noundef nonnull @.str, ptr noundef nonnull @__func__.H5PL__create_path_table, i32 noundef 258, i64 noundef %14, i64 noundef %15, ptr noundef nonnull @.str.4) #13
  br label %.thread24

17:                                               ; preds = %8
  %18 = call ptr @strtok_r(ptr noundef nonnull %11, ptr noundef nonnull @.str.5, ptr noundef nonnull %1) #13
  %.not39 = icmp eq ptr %18, null
  br i1 %.not39, label %.thread34, label %.lr.ph

.lr.ph:                                           ; preds = %17, %H5PL__append_path.exit
  %.01340 = phi ptr [ %22, %H5PL__append_path.exit ], [ %18, %17 ]
  %19 = load i32, ptr @H5PL_num_paths_g, align 4
  %20 = call fastcc i32 @H5PL__insert_at(ptr noundef nonnull %.01340, i32 noundef %19)
  %21 = icmp slt i32 %20, 0
  br i1 %21, label %23, label %H5PL__append_path.exit

H5PL__append_path.exit:                           ; preds = %.lr.ph
  %22 = call ptr @strtok_r(ptr noundef null, ptr noundef nonnull @.str.5, ptr noundef nonnull %1) #13
  %.not = icmp eq ptr %22, null
  br i1 %.not, label %.thread34, label %.lr.ph

23:                                               ; preds = %.lr.ph
  %24 = load i64, ptr @H5E_PLUGIN_g, align 8
  %25 = load i64, ptr @H5E_CANTINSERT_g, align 8
  %26 = call i32 (ptr, ptr, i32, i64, i64, ptr, ...) @H5E_printf_stack(ptr noundef nonnull @.str, ptr noundef nonnull @__func__.H5PL__append_path, i32 noundef 394, i64 noundef %24, i64 noundef %25, ptr noundef nonnull @.str.7) #13
  %27 = load i64, ptr @H5E_PLUGIN_g, align 8
  %28 = load i64, ptr @H5E_CANTALLOC_g, align 8
  %29 = call i32 (ptr, ptr, i32, i64, i64, ptr, ...) @H5E_printf_stack(ptr noundef nonnull @.str, ptr noundef nonnull @__func__.H5PL__create_path_table, i32 noundef 266, i64 noundef %27, i64 noundef %28, ptr noundef nonnull @.str.6, ptr noundef nonnull %.01340) #13
  %30 = call ptr @H5MM_xfree(ptr noundef nonnull %11) #13
  br label %.thread24

.thread34:                                        ; preds = %H5PL__append_path.exit, %17
  %31 = call ptr @H5MM_xfree(ptr noundef nonnull %11) #13
  br label %36

.thread24:                                        ; preds = %23, %4, %13
  %32 = load ptr, ptr @H5PL_paths_g, align 8
  %.not18 = icmp eq ptr %32, null
  br i1 %.not18, label %35, label %33

33:                                               ; preds = %.thread24
  %34 = call ptr @H5MM_xfree(ptr noundef nonnull %32) #13
  store ptr %34, ptr @H5PL_paths_g, align 8
  br label %35

35:                                               ; preds = %33, %.thread24
  store i32 0, ptr @H5PL_path_capacity_g, align 4
  br label %36

36:                                               ; preds = %.thread34, %35
  %.02326 = phi i32 [ -1, %35 ], [ 0, %.thread34 ]
  ret i32 %.02326
}